(dp0
I0
S'not updated'
p1
sI1
S'Friday, May 29, 2020'
p2
sI2
S'DAA'
p3
sI3
S'NO EMAIL'
p4
sI4
S''
p5
s.(dp0
I0
S'10:00 am'
p1
sI1
S'Friday, May 29, 2020'
p2
sI2
S'Internet and Web Programming'
p3
sI3
S'NOT REGISTERED'
p4
sI4
S'https://christkengeri.webex.com/christkengeri/j.php?RGID=ra12ede1a9a0792f60c45adff123a1bf3\n'
p5
s.(dp0
I0
S'11:00 am'
p1
sI1
S'Friday, May 29, 2020'
p2
sI2
S'Software Engineering'
p3
sI3
S'NOT REGISTERED'
p4
sI4
S'https://christkengeri.webex.com/christkengeri/j.php?RGID=rf6e48181807c42bc513a41df7bfa385c\n'
p5
s.(dp0
I0
S'not updated'
p1
sI1
S'Friday, May 29, 2020'
p2
sI2
S'Internet of Things'
p3
sI3
S'NO EMAIL'
p4
sI4
S''
p5
s.(dp0
I0
S'not updated'
p1
sI1
S'Friday, May 29, 2020'
p2
sI2
S'CONA'
p3
sI3
S'NO EMAIL'
p4
sI4
S''
p5
s.(dp0
I0
S'not updated'
p1
sI1
S'Friday, May 29, 2020'
p2
sI2
S'FLAT'
p3
sI3
S'NO EMAIL'
p4
sI4
S''
p5
s.(dp0
I0
S'not updated'
p1
sI1
S'Friday, May 29, 2020'
p2
sI2
S'DAA'
p3
sI3
S'NO EMAIL'
p4
sI4
S''
p5
s.(dp0
I0
S'10:00 am'
p1
sI1
S'Friday, May 29, 2020'
p2
sI2
S'Internet and Web Programming'
p3
sI3
S'NOT REGISTERED'
p4
sI4
S'https://christkengeri.webex.com/christkengeri/j.php?RGID=ra12ede1a9a0792f60c45adff123a1bf3\n'
p5
s.(dp0
I0
S'11:00 am'
p1
sI1
S'Friday, May 29, 2020'
p2
sI2
S'Software Engineering'
p3
sI3
S'NOT REGISTERED'
p4
sI4
S'https://christkengeri.webex.com/christkengeri/j.php?RGID=rf6e48181807c42bc513a41df7bfa385c\n'
p5
s.(dp0
I0
S'not updated'
p1
sI1
S'Friday, May 29, 2020'
p2
sI2
S'Internet of Things'
p3
sI3
S'NO EMAIL'
p4
sI4
S''
p5
s.(dp0
I0
S'not updated'
p1
sI1
S'Friday, May 29, 2020'
p2
sI2
S'CONA'
p3
sI3
S'NO EMAIL'
p4
sI4
S''
p5
s.(dp0
I0
S'not updated'
p1
sI1
S'Friday, May 29, 2020'
p2
sI2
S'FLAT'
p3
sI3
S'NO EMAIL'
p4
sI4
S''
p5
s.(dp0
I0
S'not updated'
p1
sI1
S'Friday, May 29, 2020'
p2
sI2
S'DAA'
p3
sI3
S'NO EMAIL'
p4
sI4
S''
p5
s.(dp0
I0
S'10:00 am'
p1
sI1
S'Friday, May 29, 2020'
p2
sI2
S'Internet and Web Programming'
p3
sI3
S'NOT REGISTERED'
p4
sI4
S'https://christkengeri.webex.com/christkengeri/j.php?RGID=ra12ede1a9a0792f60c45adff123a1bf3\n'
p5
s.(dp0
I0
S'11:00 am'
p1
sI1
S'Friday, May 29, 2020'
p2
sI2
S'Software Engineering'
p3
sI3
S'NOT REGISTERED'
p4
sI4
S'https://christkengeri.webex.com/christkengeri/j.php?RGID=rf6e48181807c42bc513a41df7bfa385c\n'
p5
s.(dp0
I0
S'not updated'
p1
sI1
S'Friday, May 29, 2020'
p2
sI2
S'Internet of Things'
p3
sI3
S'NO EMAIL'
p4
sI4
S''
p5
s.(dp0
I0
S'not updated'
p1
sI1
S'Friday, May 29, 2020'
p2
sI2
S'CONA'
p3
sI3
S'NO EMAIL'
p4
sI4
S''
p5
s.(dp0
I0
S'not updated'
p1
sI1
S'Friday, May 29, 2020'
p2
sI2
S'FLAT'
p3
sI3
S'NO EMAIL'
p4
sI4
S''
p5
s.